target datalayout = "e-m:e-p270:32:32-p271:32:32-p272:64:64-i64:64-i128:128-f80:128-n8:16:32:64-S128"
target triple = "x86_64-pc-linux-gnu"

%struct.object_id = type { [32 x i8], i32 }
%struct.command = type { ptr, ptr, ptr, ptr, i8, i32, %struct.object_id, %struct.object_id, [0 x i8] }

@is_null_oid.null_hash = internal constant [32 x i8] zeroinitializer, align 16

; Function Attrs: inlinehint nounwind uwtable
define internal i32 @is_null_oid(ptr noundef %0) #5 {
  %2 = alloca ptr, align 8
  store ptr %0, ptr %2, align 8, !tbaa !166
  %3 = load ptr, ptr %2, align 8, !tbaa !166
  %4 = getelementptr inbounds nuw %struct.object_id, ptr %3, i32 0, i32 0
  %5 = getelementptr inbounds [32 x i8], ptr %4, i64 0, i64 0
  %6 = call i32 @memcmp(ptr noundef %5, ptr noundef @is_null_oid.null_hash, i64 noundef 32) #17
  %7 = icmp ne i32 %6, 0
  %8 = xor i1 %7, true
  %9 = zext i1 %8 to i32
  ret i32 %9
}

; Function Attrs: nounwind uwtable
define internal ptr @command_singleton_iterator(ptr noundef %0) #0 {
  %2 = alloca ptr, align 8
  %3 = alloca ptr, align 8
  %4 = alloca ptr, align 8
  %5 = alloca ptr, align 8
  %6 = alloca i32, align 4
  store ptr %0, ptr %3, align 8, !tbaa !45
  call void @llvm.lifetime.start.p0(i64 8, ptr %4) #15
  %7 = load ptr, ptr %3, align 8, !tbaa !45
  store ptr %7, ptr %4, align 8, !tbaa !82
  call void @llvm.lifetime.start.p0(i64 8, ptr %5) #15
  %8 = load ptr, ptr %4, align 8, !tbaa !82
  %9 = load ptr, ptr %8, align 8, !tbaa !29
  store ptr %9, ptr %5, align 8, !tbaa !29
  %10 = load ptr, ptr %5, align 8, !tbaa !29
  %11 = icmp ne ptr %10, null
  br i1 %11, label %12, label %17

12:                                               ; preds = %1
  %13 = load ptr, ptr %5, align 8, !tbaa !29
  %14 = getelementptr inbounds nuw %struct.command, ptr %13, i32 0, i32 7
  %15 = call i32 @is_null_oid(ptr noundef %14)
  %16 = icmp ne i32 %15, 0
  br i1 %16, label %17, label %18

17:                                               ; preds = %12, %1
  store ptr null, ptr %2, align 8
  store i32 1, ptr %6, align 4
  br label %22

18:                                               ; preds = %12
  %19 = load ptr, ptr %4, align 8, !tbaa !82
  store ptr null, ptr %19, align 8, !tbaa !29
  %20 = load ptr, ptr %5, align 8, !tbaa !29
  %21 = getelementptr inbounds nuw %struct.command, ptr %20, i32 0, i32 7
  store ptr %21, ptr %2, align 8
  store i32 1, ptr %6, align 4
  br label %22

22:                                               ; preds = %18, %17
  call void @llvm.lifetime.end.p0(i64 8, ptr %5) #15
  call void @llvm.lifetime.end.p0(i64 8, ptr %4) #15
  %23 = load ptr, ptr %2, align 8
  ret ptr %23
}