; Function Attrs: mustprogress nofree nounwind willreturn memory(read, argmem: readwrite, inaccessiblemem: none) uwtable
define internal noundef ptr @command_singleton_iterator(ptr noundef captures(none) %0) #13 {
  %2 = load ptr, ptr %0, align 8, !tbaa !26
  %.not = icmp eq ptr %2, null
  br i1 %.not, label %6, label %3

3:                                                ; preds = %1
  %4 = getelementptr inbounds nuw i8, ptr %2, i64 76
  %bcmp.i = tail call i32 @bcmp(ptr noundef nonnull readonly dereferenceable(32) %4, ptr noundef nonnull dereferenceable(32) @is_null_oid.null_hash, i64 32)
  %.not.i.not = icmp eq i32 %bcmp.i, 0
  br i1 %.not.i.not, label %6, label %5

5:                                                ; preds = %3
  store ptr null, ptr %0, align 8, !tbaa !26
  br label %6

6:                                                ; preds = %1, %3, %5
  %.0 = phi ptr [ %4, %5 ], [ null, %3 ], [ null, %1 ]
  ret ptr %.0
}